target datalayout = "e-m:e-p270:32:32-p271:32:32-p272:64:64-i64:64-i128:128-f80:128-n8:16:32:64-S128"
target triple = "x86_64-pc-linux-gnu"

%struct.H5D_layout_ops_t = type { ptr, ptr, ptr, ptr, ptr, ptr, ptr, ptr, ptr, ptr, ptr, ptr, ptr }
%struct.H5D_dset_io_info_t = type { ptr, ptr, %struct.H5D_layout_ops_t, %union.H5_flexible_const_ptr_t, %struct.H5D_io_ops_t, ptr, i64, ptr, ptr, %union.anon, ptr, %struct.H5D_type_info_t, i8 }
%union.H5_flexible_const_ptr_t = type { ptr }
%struct.H5D_io_ops_t = type { ptr, ptr, ptr, ptr }
%union.anon = type { ptr }
%struct.H5D_type_info_t = type { ptr, ptr, ptr, ptr, ptr, i64, i64, i8, i8, ptr, i32, i64 }
%struct.H5D_io_info_t = type { ptr, %struct.H5D_md_io_ops_t, i32, i64, i64, ptr, i64, i64, i64, ptr, ptr, ptr, ptr, ptr, ptr, ptr, i64, %union.H5_flexible_const_ptr_t, i32, ptr, i8, i64, ptr, i8, i64, i64, i8, i8, i32 }
%struct.H5D_md_io_ops_t = type { ptr, ptr, ptr, ptr }

@H5D_init_g = external global i8, align 1
@H5_libterm_g = external global i8, align 1

; Function Attrs: nounwind uwtable
define internal i32 @H5D__contig_mdio_init(ptr noundef %0, ptr noundef %1) #0 {
  %3 = alloca ptr, align 8
  %4 = alloca ptr, align 8
  store ptr %0, ptr %3, align 8, !tbaa !62
  store ptr %1, ptr %4, align 8, !tbaa !64
  %5 = load i8, ptr @H5D_init_g, align 1, !tbaa !12, !range !14, !noundef !15
  %6 = trunc i8 %5 to i1
  br i1 %6, label %11, label %7

7:                                                ; preds = %2
  %8 = load i8, ptr @H5_libterm_g, align 1, !tbaa !12, !range !14, !noundef !15
  %9 = trunc i8 %8 to i1
  %10 = xor i1 %9, true
  br label %11

11:                                               ; preds = %7, %2
  %12 = phi i1 [ true, %2 ], [ %10, %7 ]
  %13 = xor i1 %12, true
  %14 = xor i1 %13, true
  %15 = zext i1 %14 to i32
  %16 = sext i32 %15 to i64
  %17 = call i64 @llvm.expect.i64(i64 %16, i64 1)
  %18 = icmp ne i64 %17, 0
  br i1 %18, label %19, label %40

19:                                               ; preds = %11
  %20 = load ptr, ptr %4, align 8, !tbaa !64
  %21 = getelementptr inbounds nuw %struct.H5D_dset_io_info_t, ptr %20, i32 0, i32 9
  %22 = load ptr, ptr %21, align 8, !tbaa !54
  %23 = icmp ne ptr %22, null
  br i1 %23, label %24, label %39

24:                                               ; preds = %19
  %25 = load ptr, ptr %4, align 8, !tbaa !64
  %26 = getelementptr inbounds nuw %struct.H5D_dset_io_info_t, ptr %25, i32 0, i32 9
  %27 = load ptr, ptr %26, align 8, !tbaa !54
  %28 = load ptr, ptr %3, align 8, !tbaa !62
  %29 = getelementptr inbounds nuw %struct.H5D_io_info_t, ptr %28, i32 0, i32 9
  %30 = load ptr, ptr %29, align 8, !tbaa !111
  %31 = load ptr, ptr %3, align 8, !tbaa !62
  %32 = getelementptr inbounds nuw %struct.H5D_io_info_t, ptr %31, i32 0, i32 7
  %33 = load i64, ptr %32, align 8, !tbaa !112
  %34 = getelementptr inbounds nuw ptr, ptr %30, i64 %33
  store ptr %27, ptr %34, align 8, !tbaa !80
  %35 = load ptr, ptr %3, align 8, !tbaa !62
  %36 = getelementptr inbounds nuw %struct.H5D_io_info_t, ptr %35, i32 0, i32 7
  %37 = load i64, ptr %36, align 8, !tbaa !112
  %38 = add i64 %37, 1
  store i64 %38, ptr %36, align 8, !tbaa !112
  br label %39

39:                                               ; preds = %24, %19
  br label %40

40:                                               ; preds = %39, %11
  ret i32 0
}