; Function Attrs: mustprogress nofree norecurse nosync nounwind willreturn memory(readwrite, inaccessiblemem: none) uwtable
define internal noundef i32 @H5D__contig_mdio_init(ptr noundef captures(none) %0, ptr noundef readonly captures(none) %1) #3 {
  %3 = load i8, ptr @H5D_init_g, align 1, !tbaa !3, !range !7, !noundef !8
  %4 = trunc nuw i8 %3 to i1
  %5 = load i8, ptr @H5_libterm_g, align 1, !range !7
  %6 = trunc nuw i8 %5 to i1
  %7 = xor i1 %6, true
  %8 = select i1 %4, i1 true, i1 %7
  br i1 %8, label %9, label %19, !prof !9

9:                                                ; preds = %2
  %10 = getelementptr inbounds nuw i8, ptr %1, i64 192
  %11 = load ptr, ptr %10, align 8, !tbaa !51
  %.not = icmp eq ptr %11, null
  br i1 %.not, label %19, label %12

12:                                               ; preds = %9
  %13 = getelementptr inbounds nuw i8, ptr %0, i64 96
  %14 = load ptr, ptr %13, align 8, !tbaa !105
  %15 = getelementptr inbounds nuw i8, ptr %0, i64 80
  %16 = load i64, ptr %15, align 8, !tbaa !106
  %17 = getelementptr inbounds nuw ptr, ptr %14, i64 %16
  store ptr %11, ptr %17, align 8, !tbaa !107
  %18 = add i64 %16, 1
  store i64 %18, ptr %15, align 8, !tbaa !106
  br label %19

19:                                               ; preds = %9, %12, %2
  ret i32 0
}